ARM GAS  C:\Users\11800025\AppData\Local\Temp\ccoHcdSz.s 			page 1


   1              		.syntax unified
   2              		.cpu cortex-m0
   3              		.fpu softvfp
   4              		.eabi_attribute 20, 1
   5              		.eabi_attribute 21, 1
   6              		.eabi_attribute 23, 3
   7              		.eabi_attribute 24, 1
   8              		.eabi_attribute 25, 1
   9              		.eabi_attribute 26, 1
  10              		.eabi_attribute 30, 6
  11              		.eabi_attribute 34, 0
  12              		.eabi_attribute 18, 4
  13              		.thumb
  14              		.syntax unified
  15              		.file	"i2c.c"
  16              		.text
  17              	.Ltext0:
  18              		.cfi_sections	.debug_frame
  19              		.section	.text.Readtemp,"ax",%progbits
  20              		.align	2
  21              		.global	Readtemp
  22              		.code	16
  23              		.thumb_func
  24              		.type	Readtemp, %function
  25              	Readtemp:
  26              	.LFB32:
  27              		.file 1 "i2c.c"
   1:i2c.c         **** /* ========================================
   2:i2c.c         ****  *
   3:i2c.c         ****  * Copyright YOUR COMPANY, THE YEAR
   4:i2c.c         ****  * All Rights Reserved
   5:i2c.c         ****  * UNPUBLISHED, LICENSED SOFTWARE.
   6:i2c.c         ****  *
   7:i2c.c         ****  * CONFIDENTIAL AND PROPRIETARY INFORMATION
   8:i2c.c         ****  * WHICH IS THE PROPERTY OF your company.
   9:i2c.c         ****  *
  10:i2c.c         ****  * ========================================
  11:i2c.c         **** */
  12:i2c.c         **** #include <I2C.h>
  13:i2c.c         **** 
  14:i2c.c         **** uint8 Readtemp(uint8 temp)
  15:i2c.c         **** {
  28              		.loc 1 15 0
  29              		.cfi_startproc
  30              		@ args = 0, pretend = 0, frame = 32
  31              		@ frame_needed = 1, uses_anonymous_args = 0
  32 0000 80B5     		push	{r7, lr}
  33              		.cfi_def_cfa_offset 8
  34              		.cfi_offset 7, -8
  35              		.cfi_offset 14, -4
  36 0002 88B0     		sub	sp, sp, #32
  37              		.cfi_def_cfa_offset 40
  38 0004 00AF     		add	r7, sp, #0
  39              		.cfi_def_cfa_register 7
  40 0006 0200     		movs	r2, r0
  41 0008 FB1D     		adds	r3, r7, #7
  42 000a 1A70     		strb	r2, [r3]
ARM GAS  C:\Users\11800025\AppData\Local\Temp\ccoHcdSz.s 			page 2


  16:i2c.c         ****   uint8 write_buf[1] = {0};
  43              		.loc 1 16 0
  44 000c 1023     		movs	r3, #16
  45 000e FB18     		adds	r3, r7, r3
  46 0010 0022     		movs	r2, #0
  47 0012 1A70     		strb	r2, [r3]
  17:i2c.c         ****   uint16 result = 0;
  48              		.loc 1 17 0
  49 0014 1823     		movs	r3, #24
  50 0016 FB18     		adds	r3, r7, r3
  51 0018 0022     		movs	r2, #0
  52 001a 1A80     		strh	r2, [r3]
  18:i2c.c         ****   uint32 time = 0x10;
  53              		.loc 1 18 0
  54 001c 1023     		movs	r3, #16
  55 001e 7B61     		str	r3, [r7, #20]
  19:i2c.c         ****   int i = 0;
  56              		.loc 1 19 0
  57 0020 0023     		movs	r3, #0
  58 0022 FB61     		str	r3, [r7, #28]
  20:i2c.c         ****   uint8 upper,lower = 0;
  59              		.loc 1 20 0
  60 0024 1A23     		movs	r3, #26
  61 0026 FB18     		adds	r3, r7, r3
  62 0028 0022     		movs	r2, #0
  63 002a 1A70     		strb	r2, [r3]
  21:i2c.c         ****   uint8 Read_Buf[2]= {0};
  64              		.loc 1 21 0
  65 002c 0C23     		movs	r3, #12
  66 002e FB18     		adds	r3, r7, r3
  67 0030 0022     		movs	r2, #0
  68 0032 1A80     		strh	r2, [r3]
  22:i2c.c         ****   write_buf[0] = temp;  
  69              		.loc 1 22 0
  70 0034 1023     		movs	r3, #16
  71 0036 FB18     		adds	r3, r7, r3
  72 0038 FA1D     		adds	r2, r7, #7
  73 003a 1278     		ldrb	r2, [r2]
  74 003c 1A70     		strb	r2, [r3]
  23:i2c.c         **** 
  24:i2c.c         ****   I2C_1_I2CMasterWriteBuf(TEMP_ADDR, (uint8 *)write_buf , 1 , I2C_1_I2C_MODE_NO_STOP);
  75              		.loc 1 24 0
  76 003e 1023     		movs	r3, #16
  77 0040 F918     		adds	r1, r7, r3
  78 0042 0223     		movs	r3, #2
  79 0044 0122     		movs	r2, #1
  80 0046 1820     		movs	r0, #24
  81 0048 FFF7FEFF 		bl	I2C_1_I2CMasterWriteBuf
  25:i2c.c         ****   while((I2C_1_I2CMasterStatus() & I2C_1_I2C_MSTAT_WR_CMPLT)==0){}
  82              		.loc 1 25 0
  83 004c C046     		nop
  84              	.L2:
  85              		.loc 1 25 0 is_stmt 0 discriminator 1
  86 004e FFF7FEFF 		bl	I2C_1_I2CMasterStatus
  87 0052 0200     		movs	r2, r0
  88 0054 0223     		movs	r3, #2
  89 0056 1340     		ands	r3, r2
ARM GAS  C:\Users\11800025\AppData\Local\Temp\ccoHcdSz.s 			page 3


  90 0058 F9D0     		beq	.L2
  26:i2c.c         ****          
  27:i2c.c         ****   I2C_1_I2CMasterReadBuf(TEMP_ADDR, (uint8 *) Read_Buf , 2 ,I2C_1_I2C_MODE_REPEAT_START);     
  91              		.loc 1 27 0 is_stmt 1
  92 005a 0C23     		movs	r3, #12
  93 005c F918     		adds	r1, r7, r3
  94 005e 0123     		movs	r3, #1
  95 0060 0222     		movs	r2, #2
  96 0062 1820     		movs	r0, #24
  97 0064 FFF7FEFF 		bl	I2C_1_I2CMasterReadBuf
  28:i2c.c         ****   while((I2C_1_I2CMasterStatus() & I2C_1_I2C_MSTAT_RD_CMPLT) == 0){}
  98              		.loc 1 28 0
  99 0068 C046     		nop
 100              	.L3:
 101              		.loc 1 28 0 is_stmt 0 discriminator 1
 102 006a FFF7FEFF 		bl	I2C_1_I2CMasterStatus
 103 006e 0200     		movs	r2, r0
 104 0070 0123     		movs	r3, #1
 105 0072 1340     		ands	r3, r2
 106 0074 F9D0     		beq	.L3
  29:i2c.c         ****         
  30:i2c.c         ****   I2C_1_I2CMasterClearReadBuf();
 107              		.loc 1 30 0 is_stmt 1
 108 0076 FFF7FEFF 		bl	I2C_1_I2CMasterClearReadBuf
  31:i2c.c         ****          
  32:i2c.c         ****           while( i != 2)
 109              		.loc 1 32 0
 110 007a 35E0     		b	.L4
 111              	.L7:
 112 007c 1B23     		movs	r3, #27
 113 007e FB18     		adds	r3, r7, r3
 114 0080 1B22     		movs	r2, #27
 115 0082 BA18     		adds	r2, r7, r2
 116 0084 1278     		ldrb	r2, [r2]
 117 0086 1A70     		strb	r2, [r3]
 118 0088 1A23     		movs	r3, #26
 119 008a FB18     		adds	r3, r7, r3
 120 008c 1A22     		movs	r2, #26
 121 008e BA18     		adds	r2, r7, r2
 122 0090 1278     		ldrb	r2, [r2]
 123 0092 1A70     		strb	r2, [r3]
  33:i2c.c         ****           {
  34:i2c.c         ****             switch (i)
 124              		.loc 1 34 0
 125 0094 FB69     		ldr	r3, [r7, #28]
 126 0096 002B     		cmp	r3, #0
 127 0098 02D0     		beq	.L5
 128 009a 012B     		cmp	r3, #1
 129 009c 12D0     		beq	.L6
 130 009e 23E0     		b	.L4
 131              	.L5:
  35:i2c.c         ****             {                
  36:i2c.c         ****              case 0: upper = Read_Buf[i]; i++;break; 
 132              		.loc 1 36 0
 133 00a0 1B23     		movs	r3, #27
 134 00a2 FB18     		adds	r3, r7, r3
 135 00a4 0C22     		movs	r2, #12
ARM GAS  C:\Users\11800025\AppData\Local\Temp\ccoHcdSz.s 			page 4


 136 00a6 B918     		adds	r1, r7, r2
 137 00a8 FA69     		ldr	r2, [r7, #28]
 138 00aa 8A18     		adds	r2, r1, r2
 139 00ac 1278     		ldrb	r2, [r2]
 140 00ae 1A70     		strb	r2, [r3]
 141 00b0 FB69     		ldr	r3, [r7, #28]
 142 00b2 0133     		adds	r3, r3, #1
 143 00b4 FB61     		str	r3, [r7, #28]
 144 00b6 1A23     		movs	r3, #26
 145 00b8 FB18     		adds	r3, r7, r3
 146 00ba 1A22     		movs	r2, #26
 147 00bc BA18     		adds	r2, r7, r2
 148 00be 1278     		ldrb	r2, [r2]
 149 00c0 1A70     		strb	r2, [r3]
 150 00c2 11E0     		b	.L4
 151              	.L6:
  37:i2c.c         ****              case 1: lower = Read_Buf[i]; i++;break;
 152              		.loc 1 37 0
 153 00c4 1A23     		movs	r3, #26
 154 00c6 FB18     		adds	r3, r7, r3
 155 00c8 0C22     		movs	r2, #12
 156 00ca B918     		adds	r1, r7, r2
 157 00cc FA69     		ldr	r2, [r7, #28]
 158 00ce 8A18     		adds	r2, r1, r2
 159 00d0 1278     		ldrb	r2, [r2]
 160 00d2 1A70     		strb	r2, [r3]
 161 00d4 FB69     		ldr	r3, [r7, #28]
 162 00d6 0133     		adds	r3, r3, #1
 163 00d8 FB61     		str	r3, [r7, #28]
 164 00da 1B23     		movs	r3, #27
 165 00dc FB18     		adds	r3, r7, r3
 166 00de 1B22     		movs	r2, #27
 167 00e0 BA18     		adds	r2, r7, r2
 168 00e2 1278     		ldrb	r2, [r2]
 169 00e4 1A70     		strb	r2, [r3]
 170 00e6 C046     		nop
 171              	.L4:
  32:i2c.c         ****           {
 172              		.loc 1 32 0
 173 00e8 FB69     		ldr	r3, [r7, #28]
 174 00ea 022B     		cmp	r3, #2
 175 00ec C6D1     		bne	.L7
  38:i2c.c         ****              default: ;            
  39:i2c.c         ****             }
  40:i2c.c         ****           }       
  41:i2c.c         ****           i = 0;
 176              		.loc 1 41 0
 177 00ee 0023     		movs	r3, #0
 178 00f0 FB61     		str	r3, [r7, #28]
  42:i2c.c         ****         
  43:i2c.c         ****         //if ((upper & 0x8) == 0x80){ //TA ³ TCRIT
  44:i2c.c         ****         //}
  45:i2c.c         ****         //if ((upper & 0x4) == 0x40){ //TA > TUPPER
  46:i2c.c         ****         //}
  47:i2c.c         ****         //if ((upper & 0x2) == 0x20){ //TA < TLOWER
  48:i2c.c         ****         //}
  49:i2c.c         ****         
ARM GAS  C:\Users\11800025\AppData\Local\Temp\ccoHcdSz.s 			page 5


  50:i2c.c         ****         upper = upper & 0x1F; //Clear flag bits
 179              		.loc 1 50 0
 180 00f2 1B23     		movs	r3, #27
 181 00f4 FB18     		adds	r3, r7, r3
 182 00f6 1B22     		movs	r2, #27
 183 00f8 BA18     		adds	r2, r7, r2
 184 00fa 1278     		ldrb	r2, [r2]
 185 00fc 1F21     		movs	r1, #31
 186 00fe 0A40     		ands	r2, r1
 187 0100 1A70     		strb	r2, [r3]
  51:i2c.c         ****         
  52:i2c.c         ****             if ((upper & 0x10) == 0x10)
 188              		.loc 1 52 0
 189 0102 1B23     		movs	r3, #27
 190 0104 FB18     		adds	r3, r7, r3
 191 0106 1B78     		ldrb	r3, [r3]
 192 0108 1022     		movs	r2, #16
 193 010a 1340     		ands	r3, r2
 194 010c 17D0     		beq	.L8
  53:i2c.c         ****             { //TA < 0°C
  54:i2c.c         ****             upper = upper & 0x0F; //Clear SIGN
 195              		.loc 1 54 0
 196 010e 1B23     		movs	r3, #27
 197 0110 FB18     		adds	r3, r7, r3
 198 0112 1B22     		movs	r2, #27
 199 0114 BA18     		adds	r2, r7, r2
 200 0116 1278     		ldrb	r2, [r2]
 201 0118 0F21     		movs	r1, #15
 202 011a 0A40     		ands	r2, r1
 203 011c 1A70     		strb	r2, [r3]
  55:i2c.c         ****             temp = 256 - ((upper * 16) + (lower / 16));
 204              		.loc 1 55 0
 205 011e 1B23     		movs	r3, #27
 206 0120 FB18     		adds	r3, r7, r3
 207 0122 1B78     		ldrb	r3, [r3]
 208 0124 1B01     		lsls	r3, r3, #4
 209 0126 DAB2     		uxtb	r2, r3
 210 0128 1A23     		movs	r3, #26
 211 012a FB18     		adds	r3, r7, r3
 212 012c 1B78     		ldrb	r3, [r3]
 213 012e 1B09     		lsrs	r3, r3, #4
 214 0130 DBB2     		uxtb	r3, r3
 215 0132 D318     		adds	r3, r2, r3
 216 0134 DAB2     		uxtb	r2, r3
 217 0136 FB1D     		adds	r3, r7, #7
 218 0138 5242     		rsbs	r2, r2, #0
 219 013a 1A70     		strb	r2, [r3]
 220 013c 0CE0     		b	.L9
 221              	.L8:
  56:i2c.c         ****             }
  57:i2c.c         ****                 else //TA ³ 0°C
  58:i2c.c         ****                 {
  59:i2c.c         ****                 temp = ((upper * 16) + (lower / 16));
 222              		.loc 1 59 0
 223 013e 1B23     		movs	r3, #27
 224 0140 FB18     		adds	r3, r7, r3
 225 0142 1B78     		ldrb	r3, [r3]
ARM GAS  C:\Users\11800025\AppData\Local\Temp\ccoHcdSz.s 			page 6


 226 0144 1B01     		lsls	r3, r3, #4
 227 0146 D9B2     		uxtb	r1, r3
 228 0148 1A23     		movs	r3, #26
 229 014a FB18     		adds	r3, r7, r3
 230 014c 1B78     		ldrb	r3, [r3]
 231 014e 1B09     		lsrs	r3, r3, #4
 232 0150 DAB2     		uxtb	r2, r3
 233 0152 FB1D     		adds	r3, r7, #7
 234 0154 8A18     		adds	r2, r1, r2
 235 0156 1A70     		strb	r2, [r3]
 236              	.L9:
  60:i2c.c         ****                 }
  61:i2c.c         ****   return temp;
 237              		.loc 1 61 0
 238 0158 FB1D     		adds	r3, r7, #7
 239 015a 1B78     		ldrb	r3, [r3]
  62:i2c.c         **** }
 240              		.loc 1 62 0
 241 015c 1800     		movs	r0, r3
 242 015e BD46     		mov	sp, r7
 243 0160 08B0     		add	sp, sp, #32
 244              		@ sp needed
 245 0162 80BD     		pop	{r7, pc}
 246              		.cfi_endproc
 247              	.LFE32:
 248              		.size	Readtemp, .-Readtemp
 249              		.text
 250              	.Letext0:
 251              		.file 2 "Generated_Source\\PSoC4/cytypes.h"