ARM GAS  C:\Users\11800025\AppData\Local\Temp\ccGFSqHh.s 			page 1


   1              		.syntax unified
   2              		.cpu cortex-m0
   3              		.fpu softvfp
   4              		.eabi_attribute 20, 1
   5              		.eabi_attribute 21, 1
   6              		.eabi_attribute 23, 3
   7              		.eabi_attribute 24, 1
   8              		.eabi_attribute 25, 1
   9              		.eabi_attribute 26, 1
  10              		.eabi_attribute 30, 6
  11              		.eabi_attribute 34, 0
  12              		.eabi_attribute 18, 4
  13              		.thumb
  14              		.syntax unified
  15              		.file	"main.c"
  16              		.text
  17              	.Ltext0:
  18              		.cfi_sections	.debug_frame
  19              		.section	.rodata
  20              		.align	2
  21              	.LC0:
  22 0000 54656D70 		.ascii	"Temperatuur MCP9808 : \000"
  22      65726174 
  22      75757220 
  22      4D435039 
  22      38303820 
  23 0017 00       		.align	2
  24              	.LC2:
  25 0018 20677261 		.ascii	" graden\000"
  25      64656E00 
  26              		.section	.text.main,"ax",%progbits
  27              		.align	2
  28              		.global	main
  29              		.code	16
  30              		.thumb_func
  31              		.type	main, %function
  32              	main:
  33              	.LFB32:
  34              		.file 1 "main.c"
   1:main.c        **** /* ========================================
   2:main.c        ****  *
   3:main.c        ****  * Copyright YOUR COMPANY, THE YEAR
   4:main.c        ****  * All Rights Reserved
   5:main.c        ****  * UNPUBLISHED, LICENSED SOFTWARE.
   6:main.c        ****  *
   7:main.c        ****  * CONFIDENTIAL AND PROPRIETARY INFORMATION
   8:main.c        ****  * WHICH IS THE PROPERTY OF your company.
   9:main.c        ****  *
  10:main.c        ****  * ========================================
  11:main.c        **** */
  12:main.c        **** #include <stdlib.h>
  13:main.c        **** #include <project.h>
  14:main.c        **** #include <I2C.h>
  15:main.c        **** 
  16:main.c        **** 
  17:main.c        **** int main(void)
  18:main.c        **** {
ARM GAS  C:\Users\11800025\AppData\Local\Temp\ccGFSqHh.s 			page 2


  35              		.loc 1 18 0
  36              		.cfi_startproc
  37              		@ args = 0, pretend = 0, frame = 32
  38              		@ frame_needed = 1, uses_anonymous_args = 0
  39 0000 90B5     		push	{r4, r7, lr}
  40              		.cfi_def_cfa_offset 12
  41              		.cfi_offset 4, -12
  42              		.cfi_offset 7, -8
  43              		.cfi_offset 14, -4
  44 0002 89B0     		sub	sp, sp, #36
  45              		.cfi_def_cfa_offset 48
  46 0004 00AF     		add	r7, sp, #0
  47              		.cfi_def_cfa_register 7
  19:main.c        ****     CyGlobalIntEnable; /* Enable global interrupts. */
  48              		.loc 1 19 0
  49              		.syntax divided
  50              	@ 19 "main.c" 1
  51 0006 62B6     		CPSIE   i
  52              	@ 0 "" 2
  20:main.c        ****     I2C_1_Start();
  53              		.loc 1 20 0
  54              		.thumb
  55              		.syntax unified
  56 0008 FFF7FEFF 		bl	I2C_1_Start
  21:main.c        ****     UART_1_Start();
  57              		.loc 1 21 0
  58 000c FFF7FEFF 		bl	UART_1_Start
  22:main.c        ****     uint8 temp = 0;
  59              		.loc 1 22 0
  60 0010 1F23     		movs	r3, #31
  61 0012 FB18     		adds	r3, r7, r3
  62 0014 0022     		movs	r2, #0
  63 0016 1A70     		strb	r2, [r3]
  64              	.L2:
  23:main.c        ****     /* Place your initialization/startup code here (e.g. MyInst_Start()) */
  24:main.c        ****     char string[30];
  25:main.c        **** 
  26:main.c        ****         for(;;)
  27:main.c        ****         {
  28:main.c        ****            temp = Readtemp(TEMP_REG);  
  65              		.loc 1 28 0 discriminator 1
  66 0018 1F23     		movs	r3, #31
  67 001a FC18     		adds	r4, r7, r3
  68 001c 0520     		movs	r0, #5
  69 001e FFF7FEFF 		bl	Readtemp
  70 0022 0300     		movs	r3, r0
  71 0024 2370     		strb	r3, [r4]
  29:main.c        ****            itoa(temp,string,10);
  72              		.loc 1 29 0 discriminator 1
  73 0026 1F23     		movs	r3, #31
  74 0028 FB18     		adds	r3, r7, r3
  75 002a 1B78     		ldrb	r3, [r3]
  76 002c 3900     		movs	r1, r7
  77 002e 0A22     		movs	r2, #10
  78 0030 1800     		movs	r0, r3
  79 0032 FFF7FEFF 		bl	itoa
  30:main.c        ****            UART_1_UartPutString("Temperatuur MCP9808 : ");
ARM GAS  C:\Users\11800025\AppData\Local\Temp\ccGFSqHh.s 			page 3


  80              		.loc 1 30 0 discriminator 1
  81 0036 0C4B     		ldr	r3, .L3
  82 0038 1800     		movs	r0, r3
  83 003a FFF7FEFF 		bl	UART_1_UartPutString
  31:main.c        ****            UART_1_UartPutString(string);
  84              		.loc 1 31 0 discriminator 1
  85 003e 3B00     		movs	r3, r7
  86 0040 1800     		movs	r0, r3
  87 0042 FFF7FEFF 		bl	UART_1_UartPutString
  32:main.c        ****            UART_1_UartPutString(" graden");
  88              		.loc 1 32 0 discriminator 1
  89 0046 094B     		ldr	r3, .L3+4
  90 0048 1800     		movs	r0, r3
  91 004a FFF7FEFF 		bl	UART_1_UartPutString
  33:main.c        ****            UART_1_UartPutChar('\n'); 
  92              		.loc 1 33 0 discriminator 1
  93 004e 0A20     		movs	r0, #10
  94 0050 FFF7FEFF 		bl	UART_1_SpiUartWriteTxData
  34:main.c        ****            UART_1_UartPutChar('\r');
  95              		.loc 1 34 0 discriminator 1
  96 0054 0D20     		movs	r0, #13
  97 0056 FFF7FEFF 		bl	UART_1_SpiUartWriteTxData
  35:main.c        ****            CyDelay(1000);
  98              		.loc 1 35 0 discriminator 1
  99 005a FA23     		movs	r3, #250
 100 005c 9B00     		lsls	r3, r3, #2
 101 005e 1800     		movs	r0, r3
 102 0060 FFF7FEFF 		bl	CyDelay
  36:main.c        ****         }
 103              		.loc 1 36 0 discriminator 1
 104 0064 D8E7     		b	.L2
 105              	.L4:
 106 0066 C046     		.align	2
 107              	.L3:
 108 0068 00000000 		.word	.LC0
 109 006c 18000000 		.word	.LC2
 110              		.cfi_endproc
 111              	.LFE32:
 112              		.size	main, .-main
 113              		.text
 114              	.Letext0:
 115              		.file 2 "Generated_Source\\PSoC4/cytypes.h"